target datalayout = "e-m:e-p270:32:32-p271:32:32-p272:64:64-i64:64-i128:128-f80:128-n8:16:32:64-S128"
target triple = "x86_64-pc-linux-gnu"

%struct.mbedtls_psa_cipher_operation_t = type { i32, i8, i8, %union.anon }
%union.anon = type { %struct.mbedtls_cipher_context_t }
%struct.mbedtls_cipher_context_t = type { ptr, i32, i32, ptr, ptr, [16 x i8], i64, [16 x i8], i64, ptr, ptr }

; Function Attrs: nounwind uwtable
define hidden i32 @mbedtls_psa_cipher_finish(ptr noundef %0, ptr noundef %1, i64 noundef %2, ptr noundef %3) #0 {
  %5 = alloca ptr, align 8
  %6 = alloca ptr, align 8
  %7 = alloca i64, align 8
  %8 = alloca ptr, align 8
  %9 = alloca i32, align 4
  %10 = alloca [16 x i8], align 16
  store ptr %0, ptr %5, align 8, !tbaa !12
  store ptr %1, ptr %6, align 8, !tbaa !17
  store i64 %2, ptr %7, align 8, !tbaa !13
  store ptr %3, ptr %8, align 8, !tbaa !9
  call void @llvm.lifetime.start.p0(i64 4, ptr %9) #7
  store i32 -132, ptr %9, align 4, !tbaa !3
  call void @llvm.lifetime.start.p0(i64 16, ptr %10) #7
  %11 = load ptr, ptr %5, align 8, !tbaa !12
  %12 = getelementptr inbounds nuw %struct.mbedtls_psa_cipher_operation_t, ptr %11, i32 0, i32 3
  %13 = getelementptr inbounds nuw %struct.mbedtls_cipher_context_t, ptr %12, i32 0, i32 6
  %14 = load i64, ptr %13, align 8, !tbaa !29
  %15 = icmp ne i64 %14, 0
  br i1 %15, label %16, label %28

16:                                               ; preds = %4
  %17 = load ptr, ptr %5, align 8, !tbaa !12
  %18 = getelementptr inbounds nuw %struct.mbedtls_psa_cipher_operation_t, ptr %17, i32 0, i32 0
  %19 = load i32, ptr %18, align 8, !tbaa !24
  %20 = icmp eq i32 %19, 71320576
  br i1 %20, label %26, label %21

21:                                               ; preds = %16
  %22 = load ptr, ptr %5, align 8, !tbaa !12
  %23 = getelementptr inbounds nuw %struct.mbedtls_psa_cipher_operation_t, ptr %22, i32 0, i32 0
  %24 = load i32, ptr %23, align 8, !tbaa !24
  %25 = icmp eq i32 %24, 71319552
  br i1 %25, label %26, label %27

26:                                               ; preds = %21, %16
  store i32 -135, ptr %9, align 4, !tbaa !3
  br label %56

27:                                               ; preds = %21
  br label %28

28:                                               ; preds = %27, %4
  %29 = load ptr, ptr %5, align 8, !tbaa !12
  %30 = getelementptr inbounds nuw %struct.mbedtls_psa_cipher_operation_t, ptr %29, i32 0, i32 3
  %31 = getelementptr inbounds [16 x i8], ptr %10, i64 0, i64 0
  %32 = load ptr, ptr %8, align 8, !tbaa !9
  %33 = call i32 @mbedtls_cipher_finish(ptr noundef %30, ptr noundef %31, ptr noundef %32)
  %34 = call i32 @mbedtls_to_psa_error(i32 noundef %33)
  store i32 %34, ptr %9, align 4, !tbaa !3
  %35 = load i32, ptr %9, align 4, !tbaa !3
  %36 = icmp ne i32 %35, 0
  br i1 %36, label %37, label %38

37:                                               ; preds = %28
  br label %56

38:                                               ; preds = %28
  %39 = load ptr, ptr %8, align 8, !tbaa !9
  %40 = load i64, ptr %39, align 8, !tbaa !13
  %41 = icmp eq i64 %40, 0
  br i1 %41, label %42, label %43

42:                                               ; preds = %38
  br label %55

43:                                               ; preds = %38
  %44 = load i64, ptr %7, align 8, !tbaa !13
  %45 = load ptr, ptr %8, align 8, !tbaa !9
  %46 = load i64, ptr %45, align 8, !tbaa !13
  %47 = icmp uge i64 %44, %46
  br i1 %47, label %48, label %53

48:                                               ; preds = %43
  %49 = load ptr, ptr %6, align 8, !tbaa !17
  %50 = getelementptr inbounds [16 x i8], ptr %10, i64 0, i64 0
  %51 = load ptr, ptr %8, align 8, !tbaa !9
  %52 = load i64, ptr %51, align 8, !tbaa !13
  call void @llvm.memcpy.p0.p0.i64(ptr align 1 %49, ptr align 16 %50, i64 %52, i1 false)
  br label %54

53:                                               ; preds = %43
  store i32 -138, ptr %9, align 4, !tbaa !3
  br label %54

54:                                               ; preds = %53, %48
  br label %55

55:                                               ; preds = %54, %42
  br label %56

56:                                               ; preds = %55, %37, %26
  %57 = getelementptr inbounds [16 x i8], ptr %10, i64 0, i64 0
  call void @mbedtls_platform_zeroize(ptr noundef %57, i64 noundef 16)
  %58 = load i32, ptr %9, align 4, !tbaa !3
  call void @llvm.lifetime.end.p0(i64 16, ptr %10) #7
  call void @llvm.lifetime.end.p0(i64 4, ptr %9) #7
  ret i32 %58
}