; Function Attrs: nounwind uwtable
define hidden i32 @mbedtls_psa_cipher_finish(ptr noundef %0, ptr noundef writeonly captures(none) %1, i64 noundef %2, ptr noundef %3) local_unnamed_addr #2 {
  %5 = alloca [16 x i8], align 16
  call void @llvm.lifetime.start.p0(i64 16, ptr nonnull %5) #8
  %6 = getelementptr inbounds nuw i8, ptr %0, i64 8
  %7 = getelementptr inbounds nuw i8, ptr %0, i64 56
  %8 = load i64, ptr %7, align 8, !tbaa !18
  %.not = icmp eq i64 %8, 0
  br i1 %.not, label %11, label %9

9:                                                ; preds = %4
  %10 = load i32, ptr %0, align 8, !tbaa !13
  switch i32 %10, label %11 [
    i32 71320576, label %19
    i32 71319552, label %19
  ]

11:                                               ; preds = %9, %4
  %12 = call i32 @mbedtls_cipher_finish(ptr noundef nonnull %6, ptr noundef nonnull %5, ptr noundef %3) #8
  %13 = call i32 @mbedtls_to_psa_error(i32 noundef %12) #8
  %.not14 = icmp eq i32 %13, 0
  br i1 %.not14, label %14, label %19

14:                                               ; preds = %11
  %15 = load i64, ptr %3, align 8, !tbaa !7
  %16 = icmp eq i64 %15, 0
  br i1 %16, label %19, label %17

17:                                               ; preds = %14
  %.not15 = icmp ult i64 %2, %15
  br i1 %.not15, label %19, label %18

18:                                               ; preds = %17
  call void @llvm.memcpy.p0.p0.i64(ptr align 1 %1, ptr nonnull align 16 %5, i64 %15, i1 false)
  br label %19

19:                                               ; preds = %17, %9, %9, %14, %18, %11
  %.0 = phi i32 [ %13, %11 ], [ 0, %14 ], [ 0, %18 ], [ -135, %9 ], [ -135, %9 ], [ -138, %17 ]
  call void @mbedtls_platform_zeroize(ptr noundef nonnull %5, i64 noundef 16) #8
  call void @llvm.lifetime.end.p0(i64 16, ptr nonnull %5) #8
  ret i32 %.0
}